target datalayout = "e-m:e-p270:32:32-p271:32:32-p272:64:64-i64:64-i128:128-f80:128-n8:16:32:64-S128"
target triple = "x86_64-pc-linux-gnu"

%struct.MvcCoverStruct = type { i32, i32, i32, %struct.MvcListStruct, ptr, i32, ptr, ptr, ptr }
%struct.MvcListStruct = type { ptr, ptr, i32 }
%struct.MvcManagerStruct = type { ptr, ptr, ptr, ptr }
%struct.MvcCubeStruct = type { ptr, i32, i32, [1 x i32] }

; Function Attrs: nounwind uwtable
define ptr @Mvc_CubeAlloc(ptr noundef %0) #0 {
  %2 = alloca ptr, align 8
  %3 = alloca ptr, align 8
  store ptr %0, ptr %2, align 8, !tbaa !3
  call void @llvm.lifetime.start.p0(i64 8, ptr %3) #5
  %4 = load ptr, ptr %2, align 8, !tbaa !3
  %5 = getelementptr inbounds nuw %struct.MvcCoverStruct, ptr %4, i32 0, i32 0
  %6 = load i32, ptr %5, align 8, !tbaa !8
  switch i32 %6, label %28 [
    i32 0, label %7
    i32 1, label %7
    i32 2, label %14
    i32 3, label %21
    i32 4, label %21
  ]

7:                                                ; preds = %1, %1
  %8 = load ptr, ptr %2, align 8, !tbaa !3
  %9 = getelementptr inbounds nuw %struct.MvcCoverStruct, ptr %8, i32 0, i32 8
  %10 = load ptr, ptr %9, align 8, !tbaa !16
  %11 = getelementptr inbounds nuw %struct.MvcManagerStruct, ptr %10, i32 0, i32 1
  %12 = load ptr, ptr %11, align 8, !tbaa !17
  %13 = call ptr @Extra_MmFixedEntryFetch(ptr noundef %12)
  store ptr %13, ptr %3, align 8, !tbaa !20
  br label %38

14:                                               ; preds = %1
  %15 = load ptr, ptr %2, align 8, !tbaa !3
  %16 = getelementptr inbounds nuw %struct.MvcCoverStruct, ptr %15, i32 0, i32 8
  %17 = load ptr, ptr %16, align 8, !tbaa !16
  %18 = getelementptr inbounds nuw %struct.MvcManagerStruct, ptr %17, i32 0, i32 2
  %19 = load ptr, ptr %18, align 8, !tbaa !21
  %20 = call ptr @Extra_MmFixedEntryFetch(ptr noundef %19)
  store ptr %20, ptr %3, align 8, !tbaa !20
  br label %38

21:                                               ; preds = %1, %1
  %22 = load ptr, ptr %2, align 8, !tbaa !3
  %23 = getelementptr inbounds nuw %struct.MvcCoverStruct, ptr %22, i32 0, i32 8
  %24 = load ptr, ptr %23, align 8, !tbaa !16
  %25 = getelementptr inbounds nuw %struct.MvcManagerStruct, ptr %24, i32 0, i32 3
  %26 = load ptr, ptr %25, align 8, !tbaa !22
  %27 = call ptr @Extra_MmFixedEntryFetch(ptr noundef %26)
  store ptr %27, ptr %3, align 8, !tbaa !20
  br label %38

28:                                               ; preds = %1
  %29 = load ptr, ptr %2, align 8, !tbaa !3
  %30 = getelementptr inbounds nuw %struct.MvcCoverStruct, ptr %29, i32 0, i32 0
  %31 = load i32, ptr %30, align 8, !tbaa !8
  %32 = sub nsw i32 %31, 1
  %33 = sext i32 %32 to i64
  %34 = mul i64 4, %33
  %35 = add i64 24, %34
  %36 = mul i64 1, %35
  %37 = call noalias ptr @malloc(i64 noundef %36) #6
  store ptr %37, ptr %3, align 8, !tbaa !20
  br label %38

38:                                               ; preds = %28, %21, %14, %7
  %39 = load ptr, ptr %2, align 8, !tbaa !3
  %40 = getelementptr inbounds nuw %struct.MvcCoverStruct, ptr %39, i32 0, i32 0
  %41 = load i32, ptr %40, align 8, !tbaa !8
  %42 = icmp eq i32 %41, 0
  br i1 %42, label %43, label %53

43:                                               ; preds = %38
  %44 = load ptr, ptr %2, align 8, !tbaa !3
  %45 = getelementptr inbounds nuw %struct.MvcCoverStruct, ptr %44, i32 0, i32 0
  %46 = load i32, ptr %45, align 8, !tbaa !8
  %47 = load ptr, ptr %3, align 8, !tbaa !20
  %48 = getelementptr inbounds nuw %struct.MvcCubeStruct, ptr %47, i32 0, i32 1
  %49 = load i32, ptr %48, align 8
  %50 = and i32 %46, 16777215
  %51 = and i32 %49, -16777216
  %52 = or i32 %51, %50
  store i32 %52, ptr %48, align 8
  br label %64

53:                                               ; preds = %38
  %54 = load ptr, ptr %2, align 8, !tbaa !3
  %55 = getelementptr inbounds nuw %struct.MvcCoverStruct, ptr %54, i32 0, i32 0
  %56 = load i32, ptr %55, align 8, !tbaa !8
  %57 = sub nsw i32 %56, 1
  %58 = load ptr, ptr %3, align 8, !tbaa !20
  %59 = getelementptr inbounds nuw %struct.MvcCubeStruct, ptr %58, i32 0, i32 1
  %60 = load i32, ptr %59, align 8
  %61 = and i32 %57, 16777215
  %62 = and i32 %60, -16777216
  %63 = or i32 %62, %61
  store i32 %63, ptr %59, align 8
  br label %64

64:                                               ; preds = %53, %43
  %65 = load ptr, ptr %2, align 8, !tbaa !3
  %66 = getelementptr inbounds nuw %struct.MvcCoverStruct, ptr %65, i32 0, i32 1
  %67 = load i32, ptr %66, align 4, !tbaa !23
  %68 = load ptr, ptr %3, align 8, !tbaa !20
  %69 = getelementptr inbounds nuw %struct.MvcCubeStruct, ptr %68, i32 0, i32 1
  %70 = load i32, ptr %69, align 8
  %71 = and i32 %67, 63
  %72 = shl i32 %71, 24
  %73 = and i32 %70, -1056964609
  %74 = or i32 %73, %72
  store i32 %74, ptr %69, align 8
  %75 = load ptr, ptr %3, align 8, !tbaa !20
  call void @llvm.lifetime.end.p0(i64 8, ptr %3) #5
  ret ptr %75
}

; Function Attrs: nocallback nofree nosync nounwind willreturn memory(argmem: readwrite)
declare void @llvm.lifetime.start.p0(i64 immarg, ptr captures(none)) #1

declare ptr @Extra_MmFixedEntryFetch(ptr noundef) #2

; Function Attrs: nounwind allocsize(0)
declare noalias ptr @malloc(i64 noundef) #3

; Function Attrs: nocallback nofree nosync nounwind willreturn memory(argmem: readwrite)
declare void @llvm.lifetime.end.p0(i64 immarg, ptr captures(none)) #1

; Function Attrs: nounwind uwtable
define ptr @Mvc_CubeDup(ptr noundef %0, ptr noundef %1) #0 {
  %3 = alloca ptr, align 8
  %4 = alloca ptr, align 8
  %5 = alloca ptr, align 8
  %6 = alloca i32, align 4
  store ptr %0, ptr %3, align 8, !tbaa !3
  store ptr %1, ptr %4, align 8, !tbaa !20
  call void @llvm.lifetime.start.p0(i64 8, ptr %5) #5
  %7 = load ptr, ptr %3, align 8, !tbaa !3
  %8 = call ptr @Mvc_CubeAlloc(ptr noundef %7)
  store ptr %8, ptr %5, align 8, !tbaa !20
  %9 = load ptr, ptr %5, align 8, !tbaa !20
  %10 = getelementptr inbounds nuw %struct.MvcCubeStruct, ptr %9, i32 0, i32 1
  %11 = load i32, ptr %10, align 8
  %12 = and i32 %11, 16777215
  %13 = icmp eq i32 %12, 0
  br i1 %13, label %14, label %22

14:                                               ; preds = %2
  %15 = load ptr, ptr %4, align 8, !tbaa !20
  %16 = getelementptr inbounds nuw %struct.MvcCubeStruct, ptr %15, i32 0, i32 3
  %17 = getelementptr inbounds [1 x i32], ptr %16, i64 0, i64 0
  %18 = load i32, ptr %17, align 8, !tbaa !24
  %19 = load ptr, ptr %5, align 8, !tbaa !20
  %20 = getelementptr inbounds nuw %struct.MvcCubeStruct, ptr %19, i32 0, i32 3
  %21 = getelementptr inbounds [1 x i32], ptr %20, i64 0, i64 0
  store i32 %18, ptr %21, align 8, !tbaa !24
  br label %68

22:                                               ; preds = %2
  %23 = load ptr, ptr %5, align 8, !tbaa !20
  %24 = getelementptr inbounds nuw %struct.MvcCubeStruct, ptr %23, i32 0, i32 1
  %25 = load i32, ptr %24, align 8
  %26 = and i32 %25, 16777215
  %27 = icmp eq i32 %26, 1
  br i1 %27, label %28, label %43

28:                                               ; preds = %22
  %29 = load ptr, ptr %4, align 8, !tbaa !20
  %30 = getelementptr inbounds nuw %struct.MvcCubeStruct, ptr %29, i32 0, i32 3
  %31 = getelementptr inbounds [1 x i32], ptr %30, i64 0, i64 0
  %32 = load i32, ptr %31, align 8, !tbaa !24
  %33 = load ptr, ptr %5, align 8, !tbaa !20
  %34 = getelementptr inbounds nuw %struct.MvcCubeStruct, ptr %33, i32 0, i32 3
  %35 = getelementptr inbounds [1 x i32], ptr %34, i64 0, i64 0
  store i32 %32, ptr %35, align 8, !tbaa !24
  %36 = load ptr, ptr %4, align 8, !tbaa !20
  %37 = getelementptr inbounds nuw %struct.MvcCubeStruct, ptr %36, i32 0, i32 3
  %38 = getelementptr inbounds [1 x i32], ptr %37, i64 0, i64 1
  %39 = load i32, ptr %38, align 4, !tbaa !24
  %40 = load ptr, ptr %5, align 8, !tbaa !20
  %41 = getelementptr inbounds nuw %struct.MvcCubeStruct, ptr %40, i32 0, i32 3
  %42 = getelementptr inbounds [1 x i32], ptr %41, i64 0, i64 1
  store i32 %39, ptr %42, align 4, !tbaa !24
  br label %67

43:                                               ; preds = %22
  call void @llvm.lifetime.start.p0(i64 4, ptr %6) #5
  %44 = load ptr, ptr %5, align 8, !tbaa !20
  %45 = getelementptr inbounds nuw %struct.MvcCubeStruct, ptr %44, i32 0, i32 1
  %46 = load i32, ptr %45, align 8
  %47 = and i32 %46, 16777215
  store i32 %47, ptr %6, align 4, !tbaa !24
  br label %48

48:                                               ; preds = %63, %43
  %49 = load i32, ptr %6, align 4, !tbaa !24
  %50 = icmp sge i32 %49, 0
  br i1 %50, label %51, label %66

51:                                               ; preds = %48
  %52 = load ptr, ptr %4, align 8, !tbaa !20
  %53 = getelementptr inbounds nuw %struct.MvcCubeStruct, ptr %52, i32 0, i32 3
  %54 = load i32, ptr %6, align 4, !tbaa !24
  %55 = sext i32 %54 to i64
  %56 = getelementptr inbounds [1 x i32], ptr %53, i64 0, i64 %55
  %57 = load i32, ptr %56, align 4, !tbaa !24
  %58 = load ptr, ptr %5, align 8, !tbaa !20
  %59 = getelementptr inbounds nuw %struct.MvcCubeStruct, ptr %58, i32 0, i32 3
  %60 = load i32, ptr %6, align 4, !tbaa !24
  %61 = sext i32 %60 to i64
  %62 = getelementptr inbounds [1 x i32], ptr %59, i64 0, i64 %61
  store i32 %57, ptr %62, align 4, !tbaa !24
  br label %63

63:                                               ; preds = %51
  %64 = load i32, ptr %6, align 4, !tbaa !24
  %65 = add nsw i32 %64, -1
  store i32 %65, ptr %6, align 4, !tbaa !24
  br label %48, !llvm.loop !25

66:                                               ; preds = %48
  call void @llvm.lifetime.end.p0(i64 4, ptr %6) #5
  br label %67

67:                                               ; preds = %66, %28
  br label %68

68:                                               ; preds = %67, %14
  %69 = load ptr, ptr %5, align 8, !tbaa !20
  call void @llvm.lifetime.end.p0(i64 8, ptr %5) #5
  ret ptr %69
}

; Function Attrs: nounwind uwtable
define void @Mvc_CubeFree(ptr noundef %0, ptr noundef %1) #0 {
  %3 = alloca ptr, align 8
  %4 = alloca ptr, align 8
  store ptr %0, ptr %3, align 8, !tbaa !3
  store ptr %1, ptr %4, align 8, !tbaa !20
  %5 = load ptr, ptr %4, align 8, !tbaa !20
  %6 = icmp eq ptr %5, null
  br i1 %6, label %7, label %8

7:                                                ; preds = %2
  br label %40

8:                                                ; preds = %2
  %9 = load ptr, ptr %3, align 8, !tbaa !3
  %10 = getelementptr inbounds nuw %struct.MvcCoverStruct, ptr %9, i32 0, i32 0
  %11 = load i32, ptr %10, align 8, !tbaa !8
  switch i32 %11, label %33 [
    i32 0, label %12
    i32 1, label %12
    i32 2, label %19
    i32 3, label %26
    i32 4, label %26
  ]

12:                                               ; preds = %8, %8
  %13 = load ptr, ptr %3, align 8, !tbaa !3
  %14 = getelementptr inbounds nuw %struct.MvcCoverStruct, ptr %13, i32 0, i32 8
  %15 = load ptr, ptr %14, align 8, !tbaa !16
  %16 = getelementptr inbounds nuw %struct.MvcManagerStruct, ptr %15, i32 0, i32 1
  %17 = load ptr, ptr %16, align 8, !tbaa !17
  %18 = load ptr, ptr %4, align 8, !tbaa !20
  call void @Extra_MmFixedEntryRecycle(ptr noundef %17, ptr noundef %18)
  br label %40

19:                                               ; preds = %8
  %20 = load ptr, ptr %3, align 8, !tbaa !3
  %21 = getelementptr inbounds nuw %struct.MvcCoverStruct, ptr %20, i32 0, i32 8
  %22 = load ptr, ptr %21, align 8, !tbaa !16
  %23 = getelementptr inbounds nuw %struct.MvcManagerStruct, ptr %22, i32 0, i32 2
  %24 = load ptr, ptr %23, align 8, !tbaa !21
  %25 = load ptr, ptr %4, align 8, !tbaa !20
  call void @Extra_MmFixedEntryRecycle(ptr noundef %24, ptr noundef %25)
  br label %40

26:                                               ; preds = %8, %8
  %27 = load ptr, ptr %3, align 8, !tbaa !3
  %28 = getelementptr inbounds nuw %struct.MvcCoverStruct, ptr %27, i32 0, i32 8
  %29 = load ptr, ptr %28, align 8, !tbaa !16
  %30 = getelementptr inbounds nuw %struct.MvcManagerStruct, ptr %29, i32 0, i32 3
  %31 = load ptr, ptr %30, align 8, !tbaa !22
  %32 = load ptr, ptr %4, align 8, !tbaa !20
  call void @Extra_MmFixedEntryRecycle(ptr noundef %31, ptr noundef %32)
  br label %40

33:                                               ; preds = %8
  %34 = load ptr, ptr %4, align 8, !tbaa !20
  %35 = icmp ne ptr %34, null
  br i1 %35, label %36, label %38

36:                                               ; preds = %33
  %37 = load ptr, ptr %4, align 8, !tbaa !20
  call void @free(ptr noundef %37) #5
  store ptr null, ptr %4, align 8, !tbaa !20
  br label %39

38:                                               ; preds = %33
  br label %39

39:                                               ; preds = %38, %36
  br label %40

40:                                               ; preds = %7, %39, %26, %19, %12
  ret void
}

declare void @Extra_MmFixedEntryRecycle(ptr noundef, ptr noundef) #2

; Function Attrs: nounwind
declare void @free(ptr noundef) #4

; Function Attrs: nounwind uwtable
define void @Mvc_CubeBitRemoveDcs(ptr noundef %0) #0 {
  %2 = alloca ptr, align 8
  %3 = alloca i32, align 4
  %4 = alloca i32, align 4
  store ptr %0, ptr %2, align 8, !tbaa !20
  call void @llvm.lifetime.start.p0(i64 4, ptr %3) #5
  call void @llvm.lifetime.start.p0(i64 4, ptr %4) #5
  %5 = load ptr, ptr %2, align 8, !tbaa !20
  %6 = getelementptr inbounds nuw %struct.MvcCubeStruct, ptr %5, i32 0, i32 1
  %7 = load i32, ptr %6, align 8
  %8 = and i32 %7, 16777215
  store i32 %8, ptr %4, align 4, !tbaa !24
  br label %9

9:                                                ; preds = %40, %1
  %10 = load i32, ptr %4, align 4, !tbaa !24
  %11 = icmp sge i32 %10, 0
  br i1 %11, label %12, label %43

12:                                               ; preds = %9
  %13 = load ptr, ptr %2, align 8, !tbaa !20
  %14 = getelementptr inbounds nuw %struct.MvcCubeStruct, ptr %13, i32 0, i32 3
  %15 = load i32, ptr %4, align 4, !tbaa !24
  %16 = sext i32 %15 to i64
  %17 = getelementptr inbounds [1 x i32], ptr %14, i64 0, i64 %16
  %18 = load i32, ptr %17, align 4, !tbaa !24
  %19 = load ptr, ptr %2, align 8, !tbaa !20
  %20 = getelementptr inbounds nuw %struct.MvcCubeStruct, ptr %19, i32 0, i32 3
  %21 = load i32, ptr %4, align 4, !tbaa !24
  %22 = sext i32 %21 to i64
  %23 = getelementptr inbounds [1 x i32], ptr %20, i64 0, i64 %22
  %24 = load i32, ptr %23, align 4, !tbaa !24
  %25 = lshr i32 %24, 1
  %26 = xor i32 %18, %25
  %27 = and i32 %26, 1431655765
  store i32 %27, ptr %3, align 4, !tbaa !24
  %28 = load i32, ptr %3, align 4, !tbaa !24
  %29 = shl i32 %28, 1
  %30 = load i32, ptr %3, align 4, !tbaa !24
  %31 = or i32 %30, %29
  store i32 %31, ptr %3, align 4, !tbaa !24
  %32 = load i32, ptr %3, align 4, !tbaa !24
  %33 = load ptr, ptr %2, align 8, !tbaa !20
  %34 = getelementptr inbounds nuw %struct.MvcCubeStruct, ptr %33, i32 0, i32 3
  %35 = load i32, ptr %4, align 4, !tbaa !24
  %36 = sext i32 %35 to i64
  %37 = getelementptr inbounds [1 x i32], ptr %34, i64 0, i64 %36
  %38 = load i32, ptr %37, align 4, !tbaa !24
  %39 = and i32 %38, %32
  store i32 %39, ptr %37, align 4, !tbaa !24
  br label %40

40:                                               ; preds = %12
  %41 = load i32, ptr %4, align 4, !tbaa !24
  %42 = add nsw i32 %41, -1
  store i32 %42, ptr %4, align 4, !tbaa !24
  br label %9, !llvm.loop !27

43:                                               ; preds = %9
  call void @llvm.lifetime.end.p0(i64 4, ptr %4) #5
  call void @llvm.lifetime.end.p0(i64 4, ptr %3) #5
  ret void
}


!llvm.module.flags = !{!0, !1, !2}

!0 = !{i32 1, !"wchar_size", i32 4}
!1 = !{i32 8, !"PIC Level", i32 2}
!2 = !{i32 7, !"uwtable", i32 2}
!3 = !{!4, !4, i64 0}
!4 = !{!"p1 _ZTS14MvcCoverStruct", !5, i64 0}
!5 = !{!"any pointer", !6, i64 0}
!6 = !{!"omnipotent char", !7, i64 0}
!7 = !{!"Simple C/C++ TBAA"}
!8 = !{!9, !10, i64 0}
!9 = !{!"MvcCoverStruct", !10, i64 0, !10, i64 4, !10, i64 8, !11, i64 16, !13, i64 40, !10, i64 48, !14, i64 56, !12, i64 64, !15, i64 72}
!10 = !{!"int", !6, i64 0}
!11 = !{!"MvcListStruct", !12, i64 0, !12, i64 8, !10, i64 16}
!12 = !{!"p1 _ZTS13MvcCubeStruct", !5, i64 0}
!13 = !{!"p2 _ZTS13MvcCubeStruct", !5, i64 0}
!14 = !{!"p1 int", !5, i64 0}
!15 = !{!"p1 _ZTS16MvcManagerStruct", !5, i64 0}
!16 = !{!9, !15, i64 72}
!17 = !{!18, !19, i64 8}
!18 = !{!"MvcManagerStruct", !19, i64 0, !19, i64 8, !19, i64 16, !19, i64 24}
!19 = !{!"p1 _ZTS16Extra_MmFixed_t_", !5, i64 0}
!20 = !{!12, !12, i64 0}
!21 = !{!18, !19, i64 16}
!22 = !{!18, !19, i64 24}
!23 = !{!9, !10, i64 4}
!24 = !{!10, !10, i64 0}
!25 = distinct !{!25, !26}
!26 = !{!"llvm.loop.mustprogress"}
!27 = distinct !{!27, !26}
